target datalayout = "e-m:e-p270:32:32-p271:32:32-p272:64:64-i64:64-i128:128-f80:128-n8:16:32:64-S128"
target triple = "x86_64-pc-linux-gnu"

; Function Attrs: inlinehint nounwind sspstrong willreturn memory(none) uwtable
define internal zeroext i1 @RB_FIXNUM_P(i64 noundef %0) #4 {
  %2 = alloca i64, align 8
  store i64 %0, ptr %2, align 8, !tbaa !35
  %3 = load i64, ptr %2, align 8, !tbaa !35
  %4 = and i64 %3, 1
  %5 = icmp ne i64 %4, 0
  ret i1 %5
}

; Function Attrs: inlinehint nounwind sspstrong willreturn memory(none) uwtable
define internal i64 @RB_INT2FIX(i64 noundef %0) #4 {
  %2 = alloca i64, align 8
  %3 = alloca i64, align 8
  %4 = alloca i64, align 8
  %5 = alloca i64, align 8
  %6 = alloca i64, align 8
  %7 = alloca i64, align 8
  store i64 %0, ptr %2, align 8, !tbaa !35
  call void @llvm.lifetime.start.p0(i64 8, ptr %3) #27
  %8 = load i64, ptr %2, align 8, !tbaa !35
  store i64 %8, ptr %3, align 8, !tbaa !35
  call void @llvm.lifetime.start.p0(i64 8, ptr %4) #27
  %9 = load i64, ptr %3, align 8, !tbaa !35
  %10 = shl i64 %9, 1
  %11 = add i64 %10, 1
  store i64 %11, ptr %4, align 8, !tbaa !35
  call void @llvm.lifetime.start.p0(i64 8, ptr %5) #27
  %12 = load i64, ptr %4, align 8, !tbaa !35
  store i64 %12, ptr %5, align 8, !tbaa !35
  call void @llvm.lifetime.start.p0(i64 8, ptr %6) #27
  %13 = load i64, ptr %5, align 8, !tbaa !35
  store i64 %13, ptr %6, align 8, !tbaa !35
  call void @llvm.lifetime.start.p0(i64 8, ptr %7) #27
  %14 = load i64, ptr %6, align 8, !tbaa !35
  store i64 %14, ptr %7, align 8, !tbaa !35
  %15 = load i64, ptr %7, align 8, !tbaa !35
  call void @llvm.lifetime.end.p0(i64 8, ptr %7) #27
  call void @llvm.lifetime.end.p0(i64 8, ptr %6) #27
  call void @llvm.lifetime.end.p0(i64 8, ptr %5) #27
  call void @llvm.lifetime.end.p0(i64 8, ptr %4) #27
  call void @llvm.lifetime.end.p0(i64 8, ptr %3) #27
  ret i64 %15
}

; Function Attrs: inlinehint nounwind sspstrong uwtable
define internal i32 @rb_num2int_inline(i64 noundef %0) #1 {
  %2 = alloca i64, align 8
  %3 = alloca i64, align 8
  store i64 %0, ptr %2, align 8, !tbaa !35
  call void @llvm.lifetime.start.p0(i64 8, ptr %3) #27
  %4 = load i64, ptr %2, align 8, !tbaa !35
  %5 = call zeroext i1 @RB_FIXNUM_P(i64 noundef %4) #28
  br i1 %5, label %6, label %9

6:                                                ; preds = %1
  %7 = load i64, ptr %2, align 8, !tbaa !35
  %8 = call i64 @rb_fix2int(i64 noundef %7)
  store i64 %8, ptr %3, align 8, !tbaa !35
  br label %12

9:                                                ; preds = %1
  %10 = load i64, ptr %2, align 8, !tbaa !35
  %11 = call i64 @rb_num2int(i64 noundef %10)
  store i64 %11, ptr %3, align 8, !tbaa !35
  br label %12

12:                                               ; preds = %9, %6
  %13 = load i64, ptr %3, align 8, !tbaa !35
  %14 = trunc i64 %13 to i32
  call void @llvm.lifetime.end.p0(i64 8, ptr %3) #27
  ret i32 %14
}

; Function Attrs: nounwind sspstrong uwtable
define internal i64 @proc_getpriority(i64 noundef %0, i64 noundef %1, i64 noundef %2) #0 {
  %4 = alloca i64, align 8
  %5 = alloca i64, align 8
  %6 = alloca i64, align 8
  %7 = alloca i32, align 4
  %8 = alloca i32, align 4
  %9 = alloca i32, align 4
  %10 = alloca i32, align 4
  store i64 %0, ptr %4, align 8, !tbaa !35
  store i64 %1, ptr %5, align 8, !tbaa !35
  store i64 %2, ptr %6, align 8, !tbaa !35
  call void @llvm.lifetime.start.p0(i64 4, ptr %7) #27
  call void @llvm.lifetime.start.p0(i64 4, ptr %8) #27
  call void @llvm.lifetime.start.p0(i64 4, ptr %9) #27
  %11 = load i64, ptr %5, align 8, !tbaa !35
  %12 = call i32 @rb_num2int_inline(i64 noundef %11)
  store i32 %12, ptr %8, align 4, !tbaa !34
  %13 = load i64, ptr %6, align 8, !tbaa !35
  %14 = call i32 @rb_num2int_inline(i64 noundef %13)
  store i32 %14, ptr %9, align 4, !tbaa !34
  %15 = call ptr @rb_errno_ptr()
  store i32 0, ptr %15, align 4, !tbaa !34
  %16 = load i32, ptr %8, align 4, !tbaa !34
  %17 = load i32, ptr %9, align 4, !tbaa !34
  %18 = call i32 @getpriority(i32 noundef %16, i32 noundef %17) #27
  store i32 %18, ptr %7, align 4, !tbaa !34
  %19 = call ptr @rb_errno_ptr()
  %20 = load i32, ptr %19, align 4, !tbaa !34
  %21 = icmp ne i32 %20, 0
  br i1 %21, label %22, label %29

22:                                               ; preds = %3
  br label %23

23:                                               ; preds = %22
  call void @llvm.lifetime.start.p0(i64 4, ptr %10) #27
  %24 = call ptr @rb_errno_ptr()
  %25 = load i32, ptr %24, align 4, !tbaa !34
  store i32 %25, ptr %10, align 4, !tbaa !34
  %26 = load i32, ptr %10, align 4, !tbaa !34
  call void @rb_syserr_fail(i32 noundef %26, ptr noundef null) #30
  unreachable

27:                                               ; No predecessors!
  br label %28

28:                                               ; preds = %27
  br label %29

29:                                               ; preds = %28, %3
  %30 = load i32, ptr %7, align 4, !tbaa !34
  %31 = sext i32 %30 to i64
  %32 = call i64 @RB_INT2FIX(i64 noundef %31) #28
  call void @llvm.lifetime.end.p0(i64 4, ptr %9) #27
  call void @llvm.lifetime.end.p0(i64 4, ptr %8) #27
  call void @llvm.lifetime.end.p0(i64 4, ptr %7) #27
  ret i64 %32
}