; Function Attrs: nounwind sspstrong uwtable
define internal range(i64 1, 0) i64 @proc_getpriority(i64 %0, i64 noundef %1, i64 noundef %2) #1 {
  %4 = and i64 %1, 1
  %.not.i = icmp eq i64 %4, 0
  br i1 %.not.i, label %7, label %5

5:                                                ; preds = %3
  %6 = tail call i64 @rb_fix2int(i64 noundef %1) #27
  br label %rb_num2int_inline.exit

7:                                                ; preds = %3
  %8 = tail call i64 @rb_num2int(i64 noundef %1) #27
  br label %rb_num2int_inline.exit

rb_num2int_inline.exit:                           ; preds = %5, %7
  %.0.i = phi i64 [ %6, %5 ], [ %8, %7 ]
  %9 = trunc i64 %.0.i to i32
  %10 = and i64 %2, 1
  %.not.i6 = icmp eq i64 %10, 0
  br i1 %.not.i6, label %13, label %11

11:                                               ; preds = %rb_num2int_inline.exit
  %12 = tail call i64 @rb_fix2int(i64 noundef %2) #27
  br label %rb_num2int_inline.exit8

13:                                               ; preds = %rb_num2int_inline.exit
  %14 = tail call i64 @rb_num2int(i64 noundef %2) #27
  br label %rb_num2int_inline.exit8

rb_num2int_inline.exit8:                          ; preds = %11, %13
  %.0.i7 = phi i64 [ %12, %11 ], [ %14, %13 ]
  %15 = trunc i64 %.0.i7 to i32
  %16 = tail call ptr @rb_errno_ptr() #27
  store i32 0, ptr %16, align 4, !tbaa !60
  %17 = tail call i32 @getpriority(i32 noundef %9, i32 noundef %15) #27
  %18 = tail call ptr @rb_errno_ptr() #27
  %19 = load i32, ptr %18, align 4, !tbaa !60
  %.not = icmp eq i32 %19, 0
  br i1 %.not, label %23, label %20

20:                                               ; preds = %rb_num2int_inline.exit8
  %21 = tail call ptr @rb_errno_ptr() #27
  %22 = load i32, ptr %21, align 4, !tbaa !60
  tail call void @rb_syserr_fail(i32 noundef %22, ptr noundef null) #29
  unreachable

23:                                               ; preds = %rb_num2int_inline.exit8
  %24 = sext i32 %17 to i64
  %25 = shl nsw i64 %24, 1
  %26 = or disjoint i64 %25, 1
  ret i64 %26
}